target datalayout = "e-m:e-p270:32:32-p271:32:32-p272:64:64-i64:64-i128:128-f80:128-n8:16:32:64-S128"
target triple = "x86_64-pc-linux-gnu"

%struct.hb_hashmap_t = type { %struct.hb_object_header_t, i32, i32, i32, i32, i32, ptr }
%struct.hb_object_header_t = type { %struct.hb_reference_count_t, %struct.hb_atomic_int_t, %struct.hb_atomic_ptr_t }
%struct.hb_reference_count_t = type { %struct.hb_atomic_int_t }
%struct.hb_atomic_int_t = type { i32 }
%struct.hb_atomic_ptr_t = type { ptr }
%struct.hb_user_data_array_t = type { %struct.hb_mutex_t, %struct.hb_lockable_set_t }
%struct.hb_mutex_t = type { [40 x i8] }
%struct.hb_lockable_set_t = type { %struct.hb_vector_t.39 }
%struct.hb_vector_t.39 = type { i32, i32, ptr }

@.str = private unnamed_addr constant [7 x i8] c"OBJECT\00", align 1
@.str.1 = private unnamed_addr constant [15 x i8] c"%s refcount=%d\00", align 1
@__PRETTY_FUNCTION__._ZL17hb_object_destroyI8hb_map_tEbPT_ = private unnamed_addr constant [49 x i8] c"bool hb_object_destroy(Type *) [Type = hb_map_t]\00", align 1

; Function Attrs: mustprogress uwtable
define internal void @_ZL14hb_object_finiI12hb_hashmap_tIjjLb1EEEvPT_(ptr noundef %0) #0 {
  %2 = alloca ptr, align 8
  %3 = alloca ptr, align 8
  store ptr %0, ptr %2, align 8
  %4 = load ptr, ptr %2, align 8
  %5 = getelementptr inbounds %struct.hb_hashmap_t, ptr %4, i32 0, i32 0
  %6 = getelementptr inbounds %struct.hb_object_header_t, ptr %5, i32 0, i32 0
  call void @_ZN20hb_reference_count_t4finiEv(ptr noundef nonnull align 4 dereferenceable(4) %6)
  %7 = load ptr, ptr %2, align 8
  %8 = getelementptr inbounds %struct.hb_hashmap_t, ptr %7, i32 0, i32 0
  %9 = getelementptr inbounds %struct.hb_object_header_t, ptr %8, i32 0, i32 2
  %10 = call noundef ptr @_ZNK15hb_atomic_ptr_tI20hb_user_data_array_tE11get_acquireEv(ptr noundef nonnull align 8 dereferenceable(8) %9)
  store ptr %10, ptr %3, align 8
  %11 = load ptr, ptr %3, align 8
  %12 = icmp ne ptr %11, null
  br i1 %12, label %13, label %19

13:                                               ; preds = %1
  %14 = load ptr, ptr %3, align 8
  call void @_ZN20hb_user_data_array_t4finiEv(ptr noundef nonnull align 8 dereferenceable(56) %14)
  %15 = load ptr, ptr %3, align 8
  call void @free(ptr noundef %15) #11
  %16 = load ptr, ptr %2, align 8
  %17 = getelementptr inbounds %struct.hb_hashmap_t, ptr %16, i32 0, i32 0
  %18 = getelementptr inbounds %struct.hb_object_header_t, ptr %17, i32 0, i32 2
  call void @_ZN15hb_atomic_ptr_tI20hb_user_data_array_tE11set_relaxedEPS0_(ptr noundef nonnull align 8 dereferenceable(8) %18, ptr noundef null)
  br label %19

19:                                               ; preds = %13, %1
  ret void
}

; Function Attrs: mustprogress nounwind uwtable
define linkonce_odr hidden void @_ZN15hb_atomic_int_t11set_relaxedEi(ptr noundef nonnull align 4 dereferenceable(4) %0, i32 noundef %1) #2 comdat align 2 {
  %3 = alloca ptr, align 8
  %4 = alloca i32, align 4
  %5 = alloca i32, align 4
  store ptr %0, ptr %3, align 8
  store i32 %1, ptr %4, align 4
  %6 = load ptr, ptr %3, align 8
  %7 = getelementptr inbounds %struct.hb_atomic_int_t, ptr %6, i32 0, i32 0
  %8 = load i32, ptr %4, align 4
  store i32 %8, ptr %5, align 4
  %9 = load i32, ptr %5, align 4
  store atomic i32 %9, ptr %7 monotonic, align 4
  ret void
}

; Function Attrs: mustprogress nounwind uwtable
define linkonce_odr hidden noundef i32 @_ZNK15hb_atomic_int_t11get_relaxedEv(ptr noundef nonnull align 4 dereferenceable(4) %0) #2 comdat align 2 {
  %2 = alloca ptr, align 8
  %3 = alloca i32, align 4
  store ptr %0, ptr %2, align 8
  %4 = load ptr, ptr %2, align 8
  %5 = getelementptr inbounds %struct.hb_atomic_int_t, ptr %4, i32 0, i32 0
  %6 = load atomic i32, ptr %5 monotonic, align 4
  store i32 %6, ptr %3, align 4
  %7 = load i32, ptr %3, align 4
  ret i32 %7
}

; Function Attrs: mustprogress uwtable
define linkonce_odr hidden void @_ZN12hb_hashmap_tIjjLb1EE4finiEv(ptr noundef nonnull align 8 dereferenceable(48) %0) #0 comdat align 2 {
  %2 = alloca ptr, align 8
  %3 = alloca i32, align 4
  store ptr %0, ptr %2, align 8
  %4 = load ptr, ptr %2, align 8
  call void @_ZL14hb_object_finiI12hb_hashmap_tIjjLb1EEEvPT_(ptr noundef %4)
  %5 = getelementptr inbounds %struct.hb_hashmap_t, ptr %4, i32 0, i32 6
  %6 = load ptr, ptr %5, align 8
  %7 = icmp ne ptr %6, null
  br i1 %7, label %8, label %15

8:                                                ; preds = %1
  %9 = getelementptr inbounds %struct.hb_hashmap_t, ptr %4, i32 0, i32 3
  %10 = load i32, ptr %9, align 8
  %11 = add i32 %10, 1
  store i32 %11, ptr %3, align 4
  %12 = getelementptr inbounds %struct.hb_hashmap_t, ptr %4, i32 0, i32 6
  %13 = load ptr, ptr %12, align 8
  call void @free(ptr noundef %13) #11
  %14 = getelementptr inbounds %struct.hb_hashmap_t, ptr %4, i32 0, i32 6
  store ptr null, ptr %14, align 8
  br label %15

15:                                               ; preds = %8, %1
  %16 = getelementptr inbounds %struct.hb_hashmap_t, ptr %4, i32 0, i32 2
  store i32 0, ptr %16, align 4
  %17 = getelementptr inbounds %struct.hb_hashmap_t, ptr %4, i32 0, i32 1
  %18 = load i32, ptr %17, align 8
  %19 = and i32 %18, 1
  %20 = or i32 %19, 0
  store i32 %20, ptr %17, align 8
  ret void
}

; Function Attrs: mustprogress nounwind uwtable
define linkonce_odr hidden void @_ZN10hb_mutex_t4finiEv(ptr noundef nonnull align 8 dereferenceable(40) %0) #2 comdat align 2 {
  %2 = alloca ptr, align 8
  store ptr %0, ptr %2, align 8
  %3 = load ptr, ptr %2, align 8
  %4 = getelementptr inbounds %struct.hb_mutex_t, ptr %3, i32 0, i32 0
  %5 = getelementptr inbounds [40 x i8], ptr %4, i64 0, i64 0
  %6 = call i32 @pthread_mutex_destroy(ptr noundef %5) #11
  ret void
}

; Function Attrs: mustprogress uwtable
define linkonce_odr hidden noundef nonnull align 4 dereferenceable(4) ptr @_ZN15hb_atomic_int_taSEi(ptr noundef nonnull align 4 dereferenceable(4) %0, i32 noundef %1) #0 comdat align 2 {
  %3 = alloca ptr, align 8
  %4 = alloca i32, align 4
  store ptr %0, ptr %3, align 8
  store i32 %1, ptr %4, align 4
  %5 = load ptr, ptr %3, align 8
  %6 = load i32, ptr %4, align 4
  call void @_ZN15hb_atomic_int_t11set_relaxedEi(ptr noundef nonnull align 4 dereferenceable(4) %5, i32 noundef %6)
  ret ptr %5
}

; Function Attrs: mustprogress uwtable
define linkonce_odr hidden noundef i32 @_ZNK15hb_atomic_int_tcviEv(ptr noundef nonnull align 4 dereferenceable(4) %0) #0 comdat align 2 {
  %2 = alloca ptr, align 8
  store ptr %0, ptr %2, align 8
  %3 = load ptr, ptr %2, align 8
  %4 = call noundef i32 @_ZNK15hb_atomic_int_t11get_relaxedEv(ptr noundef nonnull align 4 dereferenceable(4) %3)
  ret i32 %4
}

; Function Attrs: mustprogress nounwind uwtable
define linkonce_odr hidden void @_ZN12hb_hashmap_tIjjLb1EED2Ev(ptr noundef nonnull align 8 dereferenceable(48) %0) unnamed_addr #2 comdat align 2 personality ptr @__gxx_personality_v0 {
  %2 = alloca ptr, align 8
  store ptr %0, ptr %2, align 8
  %3 = load ptr, ptr %2, align 8
  invoke void @_ZN12hb_hashmap_tIjjLb1EE4finiEv(ptr noundef nonnull align 8 dereferenceable(48) %3)
          to label %4 unwind label %5

4:                                                ; preds = %1
  ret void

5:                                                ; preds = %1
  %6 = landingpad { ptr, i32 }
          catch ptr null
  %7 = extractvalue { ptr, i32 } %6, 0
  call void @__clang_call_terminate(ptr %7) #13
  unreachable
}

; Function Attrs: mustprogress nounwind uwtable
define linkonce_odr hidden void @_ZN15hb_atomic_ptr_tI20hb_user_data_array_tE11set_relaxedEPS0_(ptr noundef nonnull align 8 dereferenceable(8) %0, ptr noundef %1) #2 comdat align 2 {
  %3 = alloca ptr, align 8
  %4 = alloca ptr, align 8
  %5 = alloca ptr, align 8
  store ptr %0, ptr %3, align 8
  store ptr %1, ptr %4, align 8
  %6 = load ptr, ptr %3, align 8
  %7 = getelementptr inbounds %struct.hb_atomic_ptr_t, ptr %6, i32 0, i32 0
  %8 = load ptr, ptr %4, align 8
  store ptr %8, ptr %5, align 8
  %9 = load i64, ptr %5, align 8
  store atomic i64 %9, ptr %7 monotonic, align 8
  ret void
}

; Function Attrs: mustprogress uwtable
define linkonce_odr hidden void @_ZN20hb_user_data_array_t4finiEv(ptr noundef nonnull align 8 dereferenceable(56) %0) #0 comdat align 2 {
  %2 = alloca ptr, align 8
  store ptr %0, ptr %2, align 8
  %3 = load ptr, ptr %2, align 8
  %4 = getelementptr inbounds %struct.hb_user_data_array_t, ptr %3, i32 0, i32 1
  %5 = getelementptr inbounds %struct.hb_user_data_array_t, ptr %3, i32 0, i32 0
  call void @_ZN17hb_lockable_set_tIN20hb_user_data_array_t19hb_user_data_item_tE10hb_mutex_tE4finiERS2_(ptr noundef nonnull align 8 dereferenceable(16) %4, ptr noundef nonnull align 8 dereferenceable(40) %5)
  %6 = getelementptr inbounds %struct.hb_user_data_array_t, ptr %3, i32 0, i32 0
  call void @_ZN10hb_mutex_t4finiEv(ptr noundef nonnull align 8 dereferenceable(40) %6)
  ret void
}

; Function Attrs: mustprogress nounwind uwtable
define linkonce_odr hidden noundef ptr @_ZNK15hb_atomic_ptr_tI20hb_user_data_array_tE11get_acquireEv(ptr noundef nonnull align 8 dereferenceable(8) %0) #2 comdat align 2 {
  %2 = alloca ptr, align 8
  %3 = alloca ptr, align 8
  store ptr %0, ptr %2, align 8
  %4 = load ptr, ptr %2, align 8
  %5 = getelementptr inbounds %struct.hb_atomic_ptr_t, ptr %4, i32 0, i32 0
  %6 = load atomic i64, ptr %5 acquire, align 8
  store i64 %6, ptr %3, align 8
  %7 = load ptr, ptr %3, align 8
  ret ptr %7
}

; Function Attrs: mustprogress uwtable
define linkonce_odr hidden void @_ZN20hb_reference_count_t4finiEv(ptr noundef nonnull align 4 dereferenceable(4) %0) #0 comdat align 2 {
  %2 = alloca ptr, align 8
  store ptr %0, ptr %2, align 8
  %3 = load ptr, ptr %2, align 8
  %4 = getelementptr inbounds %struct.hb_reference_count_t, ptr %3, i32 0, i32 0
  %5 = call noundef nonnull align 4 dereferenceable(4) ptr @_ZN15hb_atomic_int_taSEi(ptr noundef nonnull align 4 dereferenceable(4) %4, i32 noundef -57005)
  ret void
}

; Function Attrs: mustprogress nounwind uwtable
define linkonce_odr hidden noundef i32 @_ZN15hb_atomic_int_t3decEv(ptr noundef nonnull align 4 dereferenceable(4) %0) #2 comdat align 2 {
  %2 = alloca ptr, align 8
  %3 = alloca i32, align 4
  %4 = alloca i32, align 4
  store ptr %0, ptr %2, align 8
  %5 = load ptr, ptr %2, align 8
  %6 = getelementptr inbounds %struct.hb_atomic_int_t, ptr %5, i32 0, i32 0
  store i32 -1, ptr %3, align 4
  %7 = load i32, ptr %3, align 4
  %8 = atomicrmw add ptr %6, i32 %7 acq_rel, align 4
  store i32 %8, ptr %4, align 4
  %9 = load i32, ptr %4, align 4
  ret i32 %9
}

; Function Attrs: mustprogress nounwind uwtable
define internal void @_ZL13_hb_debug_msgILi0EEvPKcPKvS1_bjiS1_z(ptr noundef %0, ptr noundef %1, ptr noundef %2, i1 noundef zeroext %3, i32 noundef %4, i32 noundef %5, ptr noundef %6, ...) #2 {
  %8 = alloca ptr, align 8
  %9 = alloca ptr, align 8
  %10 = alloca ptr, align 8
  %11 = alloca i8, align 1
  %12 = alloca i32, align 4
  %13 = alloca i32, align 4
  %14 = alloca ptr, align 8
  store ptr %0, ptr %8, align 8
  store ptr %1, ptr %9, align 8
  store ptr %2, ptr %10, align 8
  %15 = zext i1 %3 to i8
  store i8 %15, ptr %11, align 1
  store i32 %4, ptr %12, align 4
  store i32 %5, ptr %13, align 4
  store ptr %6, ptr %14, align 8
  ret void
}

; Function Attrs: mustprogress uwtable
define linkonce_odr hidden noundef i32 @_ZNK20hb_reference_count_t11get_relaxedEv(ptr noundef nonnull align 4 dereferenceable(4) %0) #0 comdat align 2 {
  %2 = alloca ptr, align 8
  store ptr %0, ptr %2, align 8
  %3 = load ptr, ptr %2, align 8
  %4 = getelementptr inbounds %struct.hb_reference_count_t, ptr %3, i32 0, i32 0
  %5 = call noundef i32 @_ZNK15hb_atomic_int_tcviEv(ptr noundef nonnull align 4 dereferenceable(4) %4)
  ret i32 %5
}

; Function Attrs: mustprogress nounwind uwtable
define linkonce_odr hidden void @_ZN8hb_map_tD2Ev(ptr noundef nonnull align 8 dereferenceable(48) %0) unnamed_addr #2 comdat align 2 {
  %2 = alloca ptr, align 8
  store ptr %0, ptr %2, align 8
  %3 = load ptr, ptr %2, align 8
  call void @_ZN12hb_hashmap_tIjjLb1EED2Ev(ptr noundef nonnull align 8 dereferenceable(48) %3) #11
  ret void
}

; Function Attrs: mustprogress uwtable
define internal void @_ZL14hb_object_finiI8hb_map_tEvPT_(ptr noundef %0) #0 {
  %2 = alloca ptr, align 8
  %3 = alloca ptr, align 8
  store ptr %0, ptr %2, align 8
  %4 = load ptr, ptr %2, align 8
  %5 = getelementptr inbounds %struct.hb_hashmap_t, ptr %4, i32 0, i32 0
  %6 = getelementptr inbounds %struct.hb_object_header_t, ptr %5, i32 0, i32 0
  call void @_ZN20hb_reference_count_t4finiEv(ptr noundef nonnull align 4 dereferenceable(4) %6)
  %7 = load ptr, ptr %2, align 8
  %8 = getelementptr inbounds %struct.hb_hashmap_t, ptr %7, i32 0, i32 0
  %9 = getelementptr inbounds %struct.hb_object_header_t, ptr %8, i32 0, i32 2
  %10 = call noundef ptr @_ZNK15hb_atomic_ptr_tI20hb_user_data_array_tE11get_acquireEv(ptr noundef nonnull align 8 dereferenceable(8) %9)
  store ptr %10, ptr %3, align 8
  %11 = load ptr, ptr %3, align 8
  %12 = icmp ne ptr %11, null
  br i1 %12, label %13, label %19

13:                                               ; preds = %1
  %14 = load ptr, ptr %3, align 8
  call void @_ZN20hb_user_data_array_t4finiEv(ptr noundef nonnull align 8 dereferenceable(56) %14)
  %15 = load ptr, ptr %3, align 8
  call void @free(ptr noundef %15) #11
  %16 = load ptr, ptr %2, align 8
  %17 = getelementptr inbounds %struct.hb_hashmap_t, ptr %16, i32 0, i32 0
  %18 = getelementptr inbounds %struct.hb_object_header_t, ptr %17, i32 0, i32 2
  call void @_ZN15hb_atomic_ptr_tI20hb_user_data_array_tE11set_relaxedEPS0_(ptr noundef nonnull align 8 dereferenceable(8) %18, ptr noundef null)
  br label %19

19:                                               ; preds = %13, %1
  ret void
}

; Function Attrs: mustprogress uwtable
define linkonce_odr hidden noundef i32 @_ZNK20hb_reference_count_t3decEv(ptr noundef nonnull align 4 dereferenceable(4) %0) #0 comdat align 2 {
  %2 = alloca ptr, align 8
  store ptr %0, ptr %2, align 8
  %3 = load ptr, ptr %2, align 8
  %4 = getelementptr inbounds %struct.hb_reference_count_t, ptr %3, i32 0, i32 0
  %5 = call noundef i32 @_ZN15hb_atomic_int_t3decEv(ptr noundef nonnull align 4 dereferenceable(4) %4)
  ret i32 %5
}

; Function Attrs: mustprogress uwtable
define linkonce_odr hidden noundef zeroext i1 @_ZNK18hb_object_header_t8is_inertEv(ptr noundef nonnull align 8 dereferenceable(16) %0) #0 comdat align 2 {
  %2 = alloca ptr, align 8
  store ptr %0, ptr %2, align 8
  %3 = load ptr, ptr %2, align 8
  %4 = getelementptr inbounds %struct.hb_object_header_t, ptr %3, i32 0, i32 0
  %5 = call noundef i32 @_ZNK20hb_reference_count_t11get_relaxedEv(ptr noundef nonnull align 4 dereferenceable(4) %4)
  %6 = icmp ne i32 %5, 0
  %7 = xor i1 %6, true
  ret i1 %7
}

; Function Attrs: mustprogress uwtable
define internal void @_ZL15hb_object_traceI8hb_map_tEvPKT_PKc(ptr noundef %0, ptr noundef %1) #0 {
  %3 = alloca ptr, align 8
  %4 = alloca ptr, align 8
  store ptr %0, ptr %3, align 8
  store ptr %1, ptr %4, align 8
  %5 = load ptr, ptr %3, align 8
  %6 = load ptr, ptr %4, align 8
  %7 = load ptr, ptr %3, align 8
  %8 = icmp ne ptr %7, null
  br i1 %8, label %9, label %14

9:                                                ; preds = %2
  %10 = load ptr, ptr %3, align 8
  %11 = getelementptr inbounds %struct.hb_hashmap_t, ptr %10, i32 0, i32 0
  %12 = getelementptr inbounds %struct.hb_object_header_t, ptr %11, i32 0, i32 0
  %13 = call noundef i32 @_ZNK20hb_reference_count_t11get_relaxedEv(ptr noundef nonnull align 4 dereferenceable(4) %12)
  br label %15

14:                                               ; preds = %2
  br label %15

15:                                               ; preds = %14, %9
  %16 = phi i32 [ %13, %9 ], [ 0, %14 ]
  call void (ptr, ptr, ptr, i1, i32, i32, ptr, ...) @_ZL13_hb_debug_msgILi0EEvPKcPKvS1_bjiS1_z(ptr noundef @.str, ptr noundef %5, ptr noundef null, i1 noundef zeroext false, i32 noundef 0, i32 noundef 0, ptr noundef @.str.1, ptr noundef %6, i32 noundef %16)
  ret void
}

; Function Attrs: mustprogress uwtable
define internal noundef zeroext i1 @_ZL17hb_object_destroyI8hb_map_tEbPT_(ptr noundef %0) #0 {
  %2 = alloca i1, align 1
  %3 = alloca ptr, align 8
  store ptr %0, ptr %3, align 8
  %4 = load ptr, ptr %3, align 8
  call void @_ZL15hb_object_traceI8hb_map_tEvPKT_PKc(ptr noundef %4, ptr noundef @__PRETTY_FUNCTION__._ZL17hb_object_destroyI8hb_map_tEbPT_)
  %5 = load ptr, ptr %3, align 8
  %6 = icmp ne ptr %5, null
  br i1 %6, label %7, label %11

7:                                                ; preds = %1
  %8 = load ptr, ptr %3, align 8
  %9 = getelementptr inbounds %struct.hb_hashmap_t, ptr %8, i32 0, i32 0
  %10 = call noundef zeroext i1 @_ZNK18hb_object_header_t8is_inertEv(ptr noundef nonnull align 8 dereferenceable(16) %9)
  br i1 %10, label %11, label %12

11:                                               ; preds = %7, %1
  store i1 false, ptr %2, align 1
  br label %22

12:                                               ; preds = %7
  %13 = load ptr, ptr %3, align 8
  %14 = getelementptr inbounds %struct.hb_hashmap_t, ptr %13, i32 0, i32 0
  %15 = getelementptr inbounds %struct.hb_object_header_t, ptr %14, i32 0, i32 0
  %16 = call noundef i32 @_ZNK20hb_reference_count_t3decEv(ptr noundef nonnull align 4 dereferenceable(4) %15)
  %17 = icmp ne i32 %16, 1
  br i1 %17, label %18, label %19

18:                                               ; preds = %12
  store i1 false, ptr %2, align 1
  br label %22

19:                                               ; preds = %12
  %20 = load ptr, ptr %3, align 8
  call void @_ZL14hb_object_finiI8hb_map_tEvPT_(ptr noundef %20)
  %21 = load ptr, ptr %3, align 8
  call void @_ZN8hb_map_tD2Ev(ptr noundef nonnull align 8 dereferenceable(48) %21) #11
  store i1 true, ptr %2, align 1
  br label %22

22:                                               ; preds = %19, %18, %11
  %23 = load i1, ptr %2, align 1
  ret i1 %23
}

; Function Attrs: mustprogress uwtable
define hidden void @hb_map_destroy(ptr noundef %0) #0 {
  %2 = alloca ptr, align 8
  store ptr %0, ptr %2, align 8
  %3 = load ptr, ptr %2, align 8
  %4 = call noundef zeroext i1 @_ZL17hb_object_destroyI8hb_map_tEbPT_(ptr noundef %3)
  br i1 %4, label %6, label %5

5:                                                ; preds = %1
  br label %8

6:                                                ; preds = %1
  %7 = load ptr, ptr %2, align 8
  call void @free(ptr noundef %7) #11
  br label %8

8:                                                ; preds = %6, %5
  ret void
}