; Function Attrs: mustprogress uwtable
define hidden void @hb_map_destroy(ptr noundef %0) local_unnamed_addr #3 personality ptr @__gxx_personality_v0 {
  %.not.i.i = icmp eq ptr %0, null
  br i1 %.not.i.i, label %_ZL17hb_object_destroyI8hb_map_tEbPT_.exit.thread, label %2

2:                                                ; preds = %1
  %3 = load atomic i32, ptr %0 monotonic, align 4
  %4 = load atomic i32, ptr %0 monotonic, align 4
  %.not.i9.i = icmp eq i32 %4, 0
  br i1 %.not.i9.i, label %_ZL17hb_object_destroyI8hb_map_tEbPT_.exit.thread, label %5

5:                                                ; preds = %2
  %6 = atomicrmw add ptr %0, i32 -1 acq_rel, align 4
  %.not8.i = icmp eq i32 %6, 1
  br i1 %.not8.i, label %7, label %_ZL17hb_object_destroyI8hb_map_tEbPT_.exit.thread

7:                                                ; preds = %5
  store atomic i32 -57005, ptr %0 monotonic, align 4
  %8 = getelementptr inbounds i8, ptr %0, i64 8
  %9 = load atomic i64, ptr %8 acquire, align 8
  %.not.i10.i = icmp eq i64 %9, 0
  br i1 %.not.i10.i, label %_ZL14hb_object_finiI8hb_map_tEvPT_.exit.i, label %10

10:                                               ; preds = %7
  %11 = inttoptr i64 %9 to ptr
  %12 = getelementptr inbounds i8, ptr %11, i64 40
  tail call void @_ZN17hb_lockable_set_tIN20hb_user_data_array_t19hb_user_data_item_tE10hb_mutex_tE4finiERS2_(ptr noundef nonnull align 8 dereferenceable(16) %12, ptr noundef nonnull align 8 dereferenceable(40) %11)
  %13 = tail call i32 @pthread_mutex_destroy(ptr noundef nonnull %11) #23
  tail call void @free(ptr noundef nonnull %11) #23
  store atomic i64 0, ptr %8 monotonic, align 8
  br label %_ZL14hb_object_finiI8hb_map_tEvPT_.exit.i

_ZL14hb_object_finiI8hb_map_tEvPT_.exit.i:        ; preds = %10, %7
  store atomic i32 -57005, ptr %0 monotonic, align 4
  %14 = load atomic i64, ptr %8 acquire, align 8
  %.not.i.i.i.i.i = icmp eq i64 %14, 0
  br i1 %.not.i.i.i.i.i, label %_ZL14hb_object_finiI12hb_hashmap_tIjjLb1EEEvPT_.exit.i.i.i.i, label %15

15:                                               ; preds = %_ZL14hb_object_finiI8hb_map_tEvPT_.exit.i
  %16 = inttoptr i64 %14 to ptr
  %17 = getelementptr inbounds i8, ptr %16, i64 40
  invoke void @_ZN17hb_lockable_set_tIN20hb_user_data_array_t19hb_user_data_item_tE10hb_mutex_tE4finiERS2_(ptr noundef nonnull align 8 dereferenceable(16) %17, ptr noundef nonnull align 8 dereferenceable(40) %16)
          to label %.noexc.i.i.i unwind label %22

.noexc.i.i.i:                                     ; preds = %15
  %18 = tail call i32 @pthread_mutex_destroy(ptr noundef nonnull %16) #23
  tail call void @free(ptr noundef nonnull %16) #23
  store atomic i64 0, ptr %8 monotonic, align 8
  br label %_ZL14hb_object_finiI12hb_hashmap_tIjjLb1EEEvPT_.exit.i.i.i.i

_ZL14hb_object_finiI12hb_hashmap_tIjjLb1EEEvPT_.exit.i.i.i.i: ; preds = %.noexc.i.i.i, %_ZL14hb_object_finiI8hb_map_tEvPT_.exit.i
  %19 = getelementptr inbounds i8, ptr %0, i64 40
  %20 = load ptr, ptr %19, align 8
  %.not.i.i.i.i = icmp eq ptr %20, null
  br i1 %.not.i.i.i.i, label %25, label %21

21:                                               ; preds = %_ZL14hb_object_finiI12hb_hashmap_tIjjLb1EEEvPT_.exit.i.i.i.i
  tail call void @free(ptr noundef nonnull %20) #23
  br label %25

22:                                               ; preds = %15
  %23 = landingpad { ptr, i32 }
          catch ptr null
  %24 = extractvalue { ptr, i32 } %23, 0
  tail call void @__clang_call_terminate(ptr %24) #24
  unreachable

25:                                               ; preds = %21, %_ZL14hb_object_finiI12hb_hashmap_tIjjLb1EEEvPT_.exit.i.i.i.i
  tail call void @free(ptr noundef nonnull %0) #23
  br label %_ZL17hb_object_destroyI8hb_map_tEbPT_.exit.thread

_ZL17hb_object_destroyI8hb_map_tEbPT_.exit.thread: ; preds = %1, %5, %2, %25
  ret void
}